target datalayout = "e-m:e-p270:32:32-p271:32:32-p272:64:64-i64:64-i128:128-f80:128-n8:16:32:64-S128"
target triple = "x86_64-pc-linux-gnu"

%struct._X11SDOps = type { %struct._SurfaceDataOps, ptr, ptr, i8, i8, ptr, i64, ptr, ptr, i32, i32, ptr, ptr, i64, i32, i8, i32, i32, i64, %struct.ShmPixmapData }
%struct._SurfaceDataOps = type { ptr, ptr, ptr, ptr, ptr, ptr, ptr }
%struct.ShmPixmapData = type { ptr, i32, i8, i64, i8, i64, i64, i32, i32, i32, i32 }

; Function Attrs: nounwind uwtable
define internal void @X11SD_ReleasePixmapWithBg(ptr noundef %0, ptr noundef %1) #0 {
  %3 = alloca ptr, align 8
  %4 = alloca ptr, align 8
  store ptr %0, ptr %3, align 8
  store ptr %1, ptr %4, align 8
  %5 = load ptr, ptr %4, align 8
  %6 = getelementptr inbounds %struct._X11SDOps, ptr %5, i32 0, i32 19
  %7 = getelementptr inbounds %struct.ShmPixmapData, ptr %6, i32 0, i32 4
  %8 = load i8, ptr %7, align 8
  %9 = icmp ne i8 %8, 0
  br i1 %9, label %10, label %14

10:                                               ; preds = %2
  %11 = load ptr, ptr %4, align 8
  %12 = getelementptr inbounds %struct._X11SDOps, ptr %11, i32 0, i32 19
  %13 = getelementptr inbounds %struct.ShmPixmapData, ptr %12, i32 0, i32 2
  store i8 1, ptr %13, align 4
  br label %14

14:                                               ; preds = %10, %2
  ret void
}