; Function Attrs: mustprogress nofree norecurse nosync nounwind willreturn memory(argmem: readwrite) uwtable
define internal void @X11SD_ReleasePixmapWithBg(ptr nocapture readnone %0, ptr nocapture noundef %1) #6 {
  %3 = getelementptr inbounds i8, ptr %1, i64 192
  %4 = load i8, ptr %3, align 8
  %.not = icmp eq i8 %4, 0
  br i1 %.not, label %7, label %5

5:                                                ; preds = %2
  %6 = getelementptr inbounds i8, ptr %1, i64 180
  store i8 1, ptr %6, align 4
  br label %7

7:                                                ; preds = %5, %2
  ret void
}